target datalayout = "e-m:e-p270:32:32-p271:32:32-p272:64:64-i64:64-i128:128-f80:128-n8:16:32:64-S128"
target triple = "x86_64-pc-linux-gnu"

%struct.testdata = type { ptr, ptr, i64, i8 }

@.str.3 = private unnamed_addr constant [30 x i8] c"../openssl/test/hexstr_test.c\00", align 1
@.str.5 = private unnamed_addr constant [4 x i8] c"buf\00", align 1
@.str.6 = private unnamed_addr constant [15 x i8] c"test->expected\00", align 1
@.str.8 = private unnamed_addr constant [4 x i8] c"out\00", align 1
@.str.9 = private unnamed_addr constant [9 x i8] c"test->in\00", align 1
@.str.19 = private unnamed_addr constant [61 x i8] c"OPENSSL_hexstr2buf_ex(buf, sizeof(buf), &len, test->in, ':')\00", align 1
@.str.20 = private unnamed_addr constant [61 x i8] c"OPENSSL_buf2hexstr_ex(out, 3 * len - 1, NULL, buf, len, ':')\00", align 1
@.str.21 = private unnamed_addr constant [61 x i8] c"OPENSSL_buf2hexstr_ex(out, sizeof(out), NULL, buf, len, ':')\00", align 1
@.str.22 = private unnamed_addr constant [59 x i8] c"OPENSSL_buf2hexstr_ex(out, sizeof(out), NULL, buf, 0, ':')\00", align 1
@.str.23 = private unnamed_addr constant [12 x i8] c"strlen(out)\00", align 1
@.str.24 = private unnamed_addr constant [2 x i8] c"0\00", align 1

; Function Attrs: nounwind uwtable
define internal i32 @test_hexstr_ex_to_from(i32 noundef %0) #0 {
  %2 = alloca i32, align 4
  %3 = alloca i64, align 8
  %4 = alloca [64 x i8], align 16
  %5 = alloca [64 x i8], align 16
  %6 = alloca ptr, align 8
  store i32 %0, ptr %2, align 4, !tbaa !4
  call void @llvm.lifetime.start.p0(i64 8, ptr %3) #4
  store i64 0, ptr %3, align 8, !tbaa !8
  call void @llvm.lifetime.start.p0(i64 64, ptr %4) #4
  call void @llvm.lifetime.start.p0(i64 64, ptr %5) #4
  call void @llvm.lifetime.start.p0(i64 8, ptr %6) #4
  %7 = load i32, ptr %2, align 4, !tbaa !4
  %8 = sext i32 %7 to i64
  %9 = getelementptr inbounds [6 x %struct.testdata], ptr @tbl_testdata, i64 0, i64 %8
  store ptr %9, ptr %6, align 8, !tbaa !13
  %10 = getelementptr inbounds [64 x i8], ptr %5, i64 0, i64 0
  %11 = load ptr, ptr %6, align 8, !tbaa !13
  %12 = getelementptr inbounds nuw %struct.testdata, ptr %11, i32 0, i32 0
  %13 = load ptr, ptr %12, align 8, !tbaa !15
  %14 = call i32 @OPENSSL_hexstr2buf_ex(ptr noundef %10, i64 noundef 64, ptr noundef %3, ptr noundef %13, i8 noundef signext 58)
  %15 = icmp ne i32 %14, 0
  %16 = zext i1 %15 to i32
  %17 = call i32 @test_true(ptr noundef @.str.3, i32 noundef 120, ptr noundef @.str.19, i32 noundef %16)
  %18 = icmp ne i32 %17, 0
  br i1 %18, label %19, label %71

19:                                               ; preds = %1
  %20 = getelementptr inbounds [64 x i8], ptr %5, i64 0, i64 0
  %21 = load i64, ptr %3, align 8, !tbaa !8
  %22 = load ptr, ptr %6, align 8, !tbaa !13
  %23 = getelementptr inbounds nuw %struct.testdata, ptr %22, i32 0, i32 1
  %24 = load ptr, ptr %23, align 8, !tbaa !18
  %25 = load ptr, ptr %6, align 8, !tbaa !13
  %26 = getelementptr inbounds nuw %struct.testdata, ptr %25, i32 0, i32 2
  %27 = load i64, ptr %26, align 8, !tbaa !19
  %28 = call i32 @test_mem_eq(ptr noundef @.str.3, i32 noundef 121, ptr noundef @.str.5, ptr noundef @.str.6, ptr noundef %20, i64 noundef %21, ptr noundef %24, i64 noundef %27)
  %29 = icmp ne i32 %28, 0
  br i1 %29, label %30, label %71

30:                                               ; preds = %19
  %31 = getelementptr inbounds [64 x i8], ptr %4, i64 0, i64 0
  %32 = load i64, ptr %3, align 8, !tbaa !8
  %33 = mul i64 3, %32
  %34 = sub i64 %33, 1
  %35 = getelementptr inbounds [64 x i8], ptr %5, i64 0, i64 0
  %36 = load i64, ptr %3, align 8, !tbaa !8
  %37 = call i32 @OPENSSL_buf2hexstr_ex(ptr noundef %31, i64 noundef %34, ptr noundef null, ptr noundef %35, i64 noundef %36, i8 noundef signext 58)
  %38 = icmp ne i32 %37, 0
  %39 = zext i1 %38 to i32
  %40 = call i32 @test_false(ptr noundef @.str.3, i32 noundef 123, ptr noundef @.str.20, i32 noundef %39)
  %41 = icmp ne i32 %40, 0
  br i1 %41, label %42, label %71

42:                                               ; preds = %30
  %43 = getelementptr inbounds [64 x i8], ptr %4, i64 0, i64 0
  %44 = getelementptr inbounds [64 x i8], ptr %5, i64 0, i64 0
  %45 = load i64, ptr %3, align 8, !tbaa !8
  %46 = call i32 @OPENSSL_buf2hexstr_ex(ptr noundef %43, i64 noundef 64, ptr noundef null, ptr noundef %44, i64 noundef %45, i8 noundef signext 58)
  %47 = icmp ne i32 %46, 0
  %48 = zext i1 %47 to i32
  %49 = call i32 @test_true(ptr noundef @.str.3, i32 noundef 125, ptr noundef @.str.21, i32 noundef %48)
  %50 = icmp ne i32 %49, 0
  br i1 %50, label %51, label %71

51:                                               ; preds = %42
  %52 = getelementptr inbounds [64 x i8], ptr %4, i64 0, i64 0
  %53 = load ptr, ptr %6, align 8, !tbaa !13
  %54 = getelementptr inbounds nuw %struct.testdata, ptr %53, i32 0, i32 0
  %55 = load ptr, ptr %54, align 8, !tbaa !15
  %56 = call i32 @test_str_eq(ptr noundef @.str.3, i32 noundef 126, ptr noundef @.str.8, ptr noundef @.str.9, ptr noundef %52, ptr noundef %55)
  %57 = icmp ne i32 %56, 0
  br i1 %57, label %58, label %71

58:                                               ; preds = %51
  %59 = getelementptr inbounds [64 x i8], ptr %4, i64 0, i64 0
  %60 = getelementptr inbounds [64 x i8], ptr %5, i64 0, i64 0
  %61 = call i32 @OPENSSL_buf2hexstr_ex(ptr noundef %59, i64 noundef 64, ptr noundef null, ptr noundef %60, i64 noundef 0, i8 noundef signext 58)
  %62 = icmp ne i32 %61, 0
  %63 = zext i1 %62 to i32
  %64 = call i32 @test_true(ptr noundef @.str.3, i32 noundef 128, ptr noundef @.str.22, i32 noundef %63)
  %65 = icmp ne i32 %64, 0
  br i1 %65, label %66, label %71

66:                                               ; preds = %58
  %67 = getelementptr inbounds [64 x i8], ptr %4, i64 0, i64 0
  %68 = call i64 @strlen(ptr noundef %67) #5
  %69 = call i32 @test_size_t_eq(ptr noundef @.str.3, i32 noundef 129, ptr noundef @.str.23, ptr noundef @.str.24, i64 noundef %68, i64 noundef 0)
  %70 = icmp ne i32 %69, 0
  br label %71

71:                                               ; preds = %66, %58, %51, %42, %30, %19, %1
  %72 = phi i1 [ false, %58 ], [ false, %51 ], [ false, %42 ], [ false, %30 ], [ false, %19 ], [ false, %1 ], [ %70, %66 ]
  %73 = zext i1 %72 to i32
  call void @llvm.lifetime.end.p0(i64 8, ptr %6) #4
  call void @llvm.lifetime.end.p0(i64 64, ptr %5) #4
  call void @llvm.lifetime.end.p0(i64 64, ptr %4) #4
  call void @llvm.lifetime.end.p0(i64 8, ptr %3) #4
  ret i32 %73
}