; Function Attrs: nounwind uwtable
define internal range(i32 0, 2) i32 @test_hexstr_ex_to_from(i32 noundef %0) #0 {
  %2 = alloca i64, align 8
  %3 = alloca [64 x i8], align 16
  %4 = alloca [64 x i8], align 16
  call void @llvm.lifetime.start.p0(i64 8, ptr nonnull %2) #4
  store i64 0, ptr %2, align 8, !tbaa !4
  call void @llvm.lifetime.start.p0(i64 64, ptr nonnull %3) #4
  call void @llvm.lifetime.start.p0(i64 64, ptr nonnull %4) #4
  %5 = sext i32 %0 to i64
  %6 = getelementptr inbounds [6 x %struct.testdata], ptr @tbl_testdata, i64 0, i64 %5
  %7 = load ptr, ptr %6, align 16, !tbaa !8
  %8 = call i32 @OPENSSL_hexstr2buf_ex(ptr noundef nonnull %4, i64 noundef 64, ptr noundef nonnull %2, ptr noundef %7, i8 noundef signext 58) #4
  %9 = icmp ne i32 %8, 0
  %10 = zext i1 %9 to i32
  %11 = call i32 @test_true(ptr noundef nonnull @.str.3, i32 noundef 120, ptr noundef nonnull @.str.19, i32 noundef %10) #4
  %.not = icmp eq i32 %11, 0
  br i1 %.not, label %45, label %12

12:                                               ; preds = %1
  %13 = load i64, ptr %2, align 8, !tbaa !4
  %14 = getelementptr inbounds nuw i8, ptr %6, i64 8
  %15 = load ptr, ptr %14, align 8, !tbaa !13
  %16 = getelementptr inbounds nuw i8, ptr %6, i64 16
  %17 = load i64, ptr %16, align 16, !tbaa !14
  %18 = call i32 @test_mem_eq(ptr noundef nonnull @.str.3, i32 noundef 121, ptr noundef nonnull @.str.5, ptr noundef nonnull @.str.6, ptr noundef nonnull %4, i64 noundef %13, ptr noundef %15, i64 noundef %17) #4
  %.not4 = icmp eq i32 %18, 0
  br i1 %.not4, label %45, label %19

19:                                               ; preds = %12
  %20 = load i64, ptr %2, align 8, !tbaa !4
  %21 = mul i64 %20, 3
  %22 = add i64 %21, -1
  %23 = call i32 @OPENSSL_buf2hexstr_ex(ptr noundef nonnull %3, i64 noundef %22, ptr noundef null, ptr noundef nonnull %4, i64 noundef %20, i8 noundef signext 58) #4
  %24 = icmp ne i32 %23, 0
  %25 = zext i1 %24 to i32
  %26 = call i32 @test_false(ptr noundef nonnull @.str.3, i32 noundef 123, ptr noundef nonnull @.str.20, i32 noundef %25) #4
  %.not5 = icmp eq i32 %26, 0
  br i1 %.not5, label %45, label %27

27:                                               ; preds = %19
  %28 = load i64, ptr %2, align 8, !tbaa !4
  %29 = call i32 @OPENSSL_buf2hexstr_ex(ptr noundef nonnull %3, i64 noundef 64, ptr noundef null, ptr noundef nonnull %4, i64 noundef %28, i8 noundef signext 58) #4
  %30 = icmp ne i32 %29, 0
  %31 = zext i1 %30 to i32
  %32 = call i32 @test_true(ptr noundef nonnull @.str.3, i32 noundef 125, ptr noundef nonnull @.str.21, i32 noundef %31) #4
  %.not6 = icmp eq i32 %32, 0
  br i1 %.not6, label %45, label %33

33:                                               ; preds = %27
  %34 = call i32 @test_str_eq(ptr noundef nonnull @.str.3, i32 noundef 126, ptr noundef nonnull @.str.8, ptr noundef nonnull @.str.9, ptr noundef nonnull %3, ptr noundef %7) #4
  %.not7 = icmp eq i32 %34, 0
  br i1 %.not7, label %45, label %35

35:                                               ; preds = %33
  %36 = call i32 @OPENSSL_buf2hexstr_ex(ptr noundef nonnull %3, i64 noundef 64, ptr noundef null, ptr noundef nonnull %4, i64 noundef 0, i8 noundef signext 58) #4
  %37 = icmp ne i32 %36, 0
  %38 = zext i1 %37 to i32
  %39 = call i32 @test_true(ptr noundef nonnull @.str.3, i32 noundef 128, ptr noundef nonnull @.str.22, i32 noundef %38) #4
  %.not8 = icmp eq i32 %39, 0
  br i1 %.not8, label %45, label %40

40:                                               ; preds = %35
  %41 = call i64 @strlen(ptr noundef nonnull dereferenceable(1) %3) #5
  %42 = call i32 @test_size_t_eq(ptr noundef nonnull @.str.3, i32 noundef 129, ptr noundef nonnull @.str.23, ptr noundef nonnull @.str.24, i64 noundef %41, i64 noundef 0) #4
  %43 = icmp ne i32 %42, 0
  %44 = zext i1 %43 to i32
  br label %45

45:                                               ; preds = %40, %35, %33, %27, %19, %12, %1
  %46 = phi i32 [ 0, %35 ], [ 0, %33 ], [ 0, %27 ], [ 0, %19 ], [ 0, %12 ], [ 0, %1 ], [ %44, %40 ]
  call void @llvm.lifetime.end.p0(i64 64, ptr nonnull %4) #4
  call void @llvm.lifetime.end.p0(i64 64, ptr nonnull %3) #4
  call void @llvm.lifetime.end.p0(i64 8, ptr nonnull %2) #4
  ret i32 %46
}